(lp0
S'poi'
p1
aS'salary'
p2
aS'deferral_payments'
p3
aS'loan_advances'
p4
aS'bonus'
p5
aS'restricted_stock_deferred'
p6
aS'deferred_income'
p7
aS'expenses'
p8
aS'exercised_stock_options'
p9
aS'other'
p10
aS'long_term_incentive'
p11
aS'restricted_stock'
p12
aS'director_fees'
p13
aS'to_messages'
p14
aS'from_poi_to_this_person'
p15
aS'from_messages'
p16
aS'from_this_person_to_poi'
p17
aS'shared_receipt_with_poi'
p18
a.